target datalayout = "e-m:e-p270:32:32-p271:32:32-p272:64:64-i64:64-i128:128-f80:128-n8:16:32:64-S128"
target triple = "x86_64-pc-linux-gnu"

%"class.std::basic_string_view" = type { i64, ptr }

; Function Attrs: noinline noreturn nounwind uwtable
define linkonce_odr hidden void @__clang_call_terminate(ptr noundef %0) #2 comdat {
  %2 = call ptr @__cxa_begin_catch(ptr %0) #13
  call void @_ZSt9terminatev() #14
  unreachable
}

; Function Attrs: alwaysinline mustprogress nounwind uwtable
define linkonce_odr dso_local noundef i32 @_ZN4absl16numeric_internal28CountTrailingZeroesNonzero64Em(i64 noundef %0) #11 comdat {
  %2 = alloca i64, align 8
  store i64 %0, ptr %2, align 8, !tbaa !15
  %3 = load i64, ptr %2, align 8, !tbaa !15
  %4 = call i64 @llvm.cttz.i64(i64 %3, i1 true)
  %5 = trunc i64 %4 to i32
  ret i32 %5
}

; Function Attrs: alwaysinline mustprogress nounwind uwtable
define linkonce_odr dso_local noundef i32 @_ZN4absl16numeric_internal19CountTrailingZeroesImEEiT_(i64 noundef %0) #11 comdat personality ptr @__gxx_personality_v0 {
  %2 = alloca i64, align 8
  store i64 %0, ptr %2, align 8, !tbaa !15
  %3 = load i64, ptr %2, align 8, !tbaa !15
  %4 = icmp eq i64 %3, 0
  br i1 %4, label %5, label %6

5:                                                ; preds = %1
  br label %10

6:                                                ; preds = %1
  %7 = load i64, ptr %2, align 8, !tbaa !15
  %8 = invoke noundef i32 @_ZN4absl16numeric_internal28CountTrailingZeroesNonzero64Em(i64 noundef %7)
          to label %9 unwind label %12

9:                                                ; preds = %6
  br label %10

10:                                               ; preds = %9, %5
  %11 = phi i32 [ 64, %5 ], [ %8, %9 ]
  ret i32 %11

12:                                               ; preds = %6
  %13 = landingpad { ptr, i32 }
          catch ptr null
  %14 = extractvalue { ptr, i32 } %13, 0
  call void @__clang_call_terminate(ptr %14) #14
  unreachable
}

; Function Attrs: inlinehint mustprogress nounwind uwtable
define linkonce_odr dso_local noundef i64 @_ZN4absl13little_endian8ToHost64Em(i64 noundef %0) #5 comdat {
  %2 = alloca i64, align 8
  store i64 %0, ptr %2, align 8, !tbaa !15
  %3 = load i64, ptr %2, align 8, !tbaa !15
  ret i64 %3
}

; Function Attrs: inlinehint mustprogress nounwind uwtable
define linkonce_odr dso_local noundef i64 @_ZN4absl13base_internal15UnalignedLoad64EPKv(ptr noundef %0) #5 comdat {
  %2 = alloca ptr, align 8
  %3 = alloca i64, align 8
  store ptr %0, ptr %2, align 8, !tbaa !26
  call void @llvm.lifetime.start.p0(i64 8, ptr %3) #13
  %4 = load ptr, ptr %2, align 8, !tbaa !26
  call void @llvm.memcpy.p0.p0.i64(ptr align 8 %3, ptr align 1 %4, i64 8, i1 false)
  %5 = load i64, ptr %3, align 8, !tbaa !15
  call void @llvm.lifetime.end.p0(i64 8, ptr %3) #13
  ret i64 %5
}

; Function Attrs: inlinehint mustprogress nounwind uwtable
define linkonce_odr dso_local noundef zeroext i16 @_ZN4absl13little_endian8ToHost16Et(i16 noundef zeroext %0) #5 comdat {
  %2 = alloca i16, align 2
  store i16 %0, ptr %2, align 2, !tbaa !20
  %3 = load i16, ptr %2, align 2, !tbaa !20
  ret i16 %3
}

; Function Attrs: inlinehint mustprogress nounwind uwtable
define linkonce_odr dso_local noundef zeroext i16 @_ZN4absl13base_internal15UnalignedLoad16EPKv(ptr noundef %0) #5 comdat {
  %2 = alloca ptr, align 8
  %3 = alloca i16, align 2
  store ptr %0, ptr %2, align 8, !tbaa !26
  call void @llvm.lifetime.start.p0(i64 2, ptr %3) #13
  %4 = load ptr, ptr %2, align 8, !tbaa !26
  call void @llvm.memcpy.p0.p0.i64(ptr align 2 %3, ptr align 1 %4, i64 2, i1 false)
  %5 = load i16, ptr %3, align 2, !tbaa !20
  call void @llvm.lifetime.end.p0(i64 2, ptr %3) #13
  ret i16 %5
}

; Function Attrs: inlinehint mustprogress nounwind uwtable
define linkonce_odr dso_local noundef i32 @_ZN4absl11countr_zeroImEENSt9enable_ifIXsr3std11is_unsignedIT_EE5valueEiE4typeES2_(i64 noundef %0) #5 comdat {
  %2 = alloca i64, align 8
  store i64 %0, ptr %2, align 8, !tbaa !15
  %3 = load i64, ptr %2, align 8, !tbaa !15
  %4 = call noundef i32 @_ZN4absl16numeric_internal19CountTrailingZeroesImEEiT_(i64 noundef %3) #13
  ret i32 %4
}

; Function Attrs: inlinehint mustprogress uwtable
define linkonce_odr dso_local noundef i64 @_ZN4absl13little_endian6Load64EPKv(ptr noundef %0) #8 comdat {
  %2 = alloca ptr, align 8
  store ptr %0, ptr %2, align 8, !tbaa !26
  %3 = load ptr, ptr %2, align 8, !tbaa !26
  %4 = call noundef i64 @_ZN4absl13base_internal15UnalignedLoad64EPKv(ptr noundef %3)
  %5 = call noundef i64 @_ZN4absl13little_endian8ToHost64Em(i64 noundef %4)
  ret i64 %5
}

; Function Attrs: mustprogress nounwind uwtable
define linkonce_odr dso_local void @_ZNSt17basic_string_viewIcSt11char_traitsIcEEC2EPKcm(ptr noundef nonnull align 8 dereferenceable(16) %0, ptr noundef %1, i64 noundef %2) unnamed_addr #0 comdat align 2 {
  %4 = alloca ptr, align 8
  %5 = alloca ptr, align 8
  %6 = alloca i64, align 8
  store ptr %0, ptr %4, align 8, !tbaa !4
  store ptr %1, ptr %5, align 8, !tbaa !16
  store i64 %2, ptr %6, align 8, !tbaa !15
  %7 = load ptr, ptr %4, align 8
  %8 = getelementptr inbounds nuw %"class.std::basic_string_view", ptr %7, i32 0, i32 0
  %9 = load i64, ptr %6, align 8, !tbaa !15
  store i64 %9, ptr %8, align 8, !tbaa !9
  %10 = getelementptr inbounds nuw %"class.std::basic_string_view", ptr %7, i32 0, i32 1
  %11 = load ptr, ptr %5, align 8, !tbaa !16
  store ptr %11, ptr %10, align 8, !tbaa !13
  ret void
}

; Function Attrs: inlinehint mustprogress uwtable
define linkonce_odr dso_local noundef zeroext i16 @_ZN4absl13little_endian6Load16EPKv(ptr noundef %0) #8 comdat {
  %2 = alloca ptr, align 8
  store ptr %0, ptr %2, align 8, !tbaa !26
  %3 = load ptr, ptr %2, align 8, !tbaa !26
  %4 = call noundef zeroext i16 @_ZN4absl13base_internal15UnalignedLoad16EPKv(ptr noundef %3)
  %5 = call noundef zeroext i16 @_ZN4absl13little_endian8ToHost16Et(i16 noundef zeroext %4)
  ret i16 %5
}

; Function Attrs: mustprogress nounwind uwtable
define linkonce_odr dso_local noundef ptr @_ZNKSt17basic_string_viewIcSt11char_traitsIcEE4dataEv(ptr noundef nonnull align 8 dereferenceable(16) %0) #0 comdat align 2 {
  %2 = alloca ptr, align 8
  store ptr %0, ptr %2, align 8, !tbaa !4
  %3 = load ptr, ptr %2, align 8
  %4 = getelementptr inbounds nuw %"class.std::basic_string_view", ptr %3, i32 0, i32 1
  %5 = load ptr, ptr %4, align 8, !tbaa !13
  ret ptr %5
}

; Function Attrs: inlinehint mustprogress nounwind uwtable
define linkonce_odr dso_local noundef nonnull align 8 dereferenceable(8) ptr @_ZSt3minImERKT_S2_S2_(ptr noundef nonnull align 8 dereferenceable(8) %0, ptr noundef nonnull align 8 dereferenceable(8) %1) #5 comdat {
  %3 = alloca ptr, align 8
  %4 = alloca ptr, align 8
  %5 = alloca ptr, align 8
  store ptr %0, ptr %4, align 8, !tbaa !24
  store ptr %1, ptr %5, align 8, !tbaa !24
  %6 = load ptr, ptr %5, align 8, !tbaa !24
  %7 = load i64, ptr %6, align 8, !tbaa !15
  %8 = load ptr, ptr %4, align 8, !tbaa !24
  %9 = load i64, ptr %8, align 8, !tbaa !15
  %10 = icmp ult i64 %7, %9
  br i1 %10, label %11, label %13

11:                                               ; preds = %2
  %12 = load ptr, ptr %5, align 8, !tbaa !24
  store ptr %12, ptr %3, align 8
  br label %15

13:                                               ; preds = %2
  %14 = load ptr, ptr %4, align 8, !tbaa !24
  store ptr %14, ptr %3, align 8
  br label %15

15:                                               ; preds = %13, %11
  %16 = load ptr, ptr %3, align 8
  ret ptr %16
}

; Function Attrs: mustprogress nounwind uwtable
define linkonce_odr dso_local noundef i64 @_ZNKSt17basic_string_viewIcSt11char_traitsIcEE4sizeEv(ptr noundef nonnull align 8 dereferenceable(16) %0) #0 comdat align 2 {
  %2 = alloca ptr, align 8
  store ptr %0, ptr %2, align 8, !tbaa !4
  %3 = load ptr, ptr %2, align 8
  %4 = getelementptr inbounds nuw %"class.std::basic_string_view", ptr %3, i32 0, i32 0
  %5 = load i64, ptr %4, align 8, !tbaa !9
  ret i64 %5
}

; Function Attrs: mustprogress uwtable
define dso_local { i64, ptr } @_ZN4absl23FindLongestCommonPrefixESt17basic_string_viewIcSt11char_traitsIcEES3_(i64 %0, ptr %1, i64 %2, ptr %3) #6 {
  %5 = alloca %"class.std::basic_string_view", align 8
  %6 = alloca %"class.std::basic_string_view", align 8
  %7 = alloca %"class.std::basic_string_view", align 8
  %8 = alloca i64, align 8
  %9 = alloca i64, align 8
  %10 = alloca i64, align 8
  %11 = alloca ptr, align 8
  %12 = alloca ptr, align 8
  %13 = alloca i64, align 8
  %14 = alloca i16, align 2
  %15 = alloca i32, align 4
  %16 = alloca i64, align 8
  %17 = alloca i64, align 8
  %18 = getelementptr inbounds nuw { i64, ptr }, ptr %6, i32 0, i32 0
  store i64 %0, ptr %18, align 8
  %19 = getelementptr inbounds nuw { i64, ptr }, ptr %6, i32 0, i32 1
  store ptr %1, ptr %19, align 8
  %20 = getelementptr inbounds nuw { i64, ptr }, ptr %7, i32 0, i32 0
  store i64 %2, ptr %20, align 8
  %21 = getelementptr inbounds nuw { i64, ptr }, ptr %7, i32 0, i32 1
  store ptr %3, ptr %21, align 8
  call void @llvm.lifetime.start.p0(i64 8, ptr %8) #13
  call void @llvm.lifetime.start.p0(i64 8, ptr %9) #13
  %22 = call noundef i64 @_ZNKSt17basic_string_viewIcSt11char_traitsIcEE4sizeEv(ptr noundef nonnull align 8 dereferenceable(16) %6) #13
  store i64 %22, ptr %9, align 8, !tbaa !15
  call void @llvm.lifetime.start.p0(i64 8, ptr %10) #13
  %23 = call noundef i64 @_ZNKSt17basic_string_viewIcSt11char_traitsIcEE4sizeEv(ptr noundef nonnull align 8 dereferenceable(16) %7) #13
  store i64 %23, ptr %10, align 8, !tbaa !15
  %24 = call noundef nonnull align 8 dereferenceable(8) ptr @_ZSt3minImERKT_S2_S2_(ptr noundef nonnull align 8 dereferenceable(8) %9, ptr noundef nonnull align 8 dereferenceable(8) %10)
  %25 = load i64, ptr %24, align 8, !tbaa !15
  call void @llvm.lifetime.end.p0(i64 8, ptr %10) #13
  call void @llvm.lifetime.end.p0(i64 8, ptr %9) #13
  store i64 %25, ptr %8, align 8, !tbaa !15
  call void @llvm.lifetime.start.p0(i64 8, ptr %11) #13
  %26 = call noundef ptr @_ZNKSt17basic_string_viewIcSt11char_traitsIcEE4dataEv(ptr noundef nonnull align 8 dereferenceable(16) %6) #13
  store ptr %26, ptr %11, align 8, !tbaa !16
  call void @llvm.lifetime.start.p0(i64 8, ptr %12) #13
  %27 = call noundef ptr @_ZNKSt17basic_string_viewIcSt11char_traitsIcEE4dataEv(ptr noundef nonnull align 8 dereferenceable(16) %7) #13
  store ptr %27, ptr %12, align 8, !tbaa !16
  call void @llvm.lifetime.start.p0(i64 8, ptr %13) #13
  store i64 0, ptr %13, align 8, !tbaa !15
  %28 = load i64, ptr %8, align 8, !tbaa !15
  %29 = icmp ult i64 %28, 8
  %30 = zext i1 %29 to i64
  %31 = call i64 @llvm.expect.i64(i64 %30, i64 0)
  %32 = icmp ne i64 %31, 0
  br i1 %32, label %33, label %110

33:                                               ; preds = %4
  br label %34

34:                                               ; preds = %80, %33
  %35 = load i64, ptr %13, align 8, !tbaa !15
  %36 = add i64 %35, 2
  %37 = load i64, ptr %8, align 8, !tbaa !15
  %38 = icmp ule i64 %36, %37
  %39 = zext i1 %38 to i64
  %40 = call i64 @llvm.expect.i64(i64 %39, i64 1)
  %41 = icmp ne i64 %40, 0
  br i1 %41, label %42, label %81

42:                                               ; preds = %34
  call void @llvm.lifetime.start.p0(i64 2, ptr %14) #13
  %43 = load ptr, ptr %11, align 8, !tbaa !16
  %44 = load i64, ptr %13, align 8, !tbaa !15
  %45 = getelementptr inbounds nuw i8, ptr %43, i64 %44
  %46 = call noundef zeroext i16 @_ZN4absl13little_endian6Load16EPKv(ptr noundef %45)
  %47 = zext i16 %46 to i32
  %48 = load ptr, ptr %12, align 8, !tbaa !16
  %49 = load i64, ptr %13, align 8, !tbaa !15
  %50 = getelementptr inbounds nuw i8, ptr %48, i64 %49
  %51 = call noundef zeroext i16 @_ZN4absl13little_endian6Load16EPKv(ptr noundef %50)
  %52 = zext i16 %51 to i32
  %53 = xor i32 %47, %52
  %54 = trunc i32 %53 to i16
  store i16 %54, ptr %14, align 2, !tbaa !20
  %55 = load i16, ptr %14, align 2, !tbaa !20
  %56 = zext i16 %55 to i32
  %57 = icmp ne i32 %56, 0
  %58 = zext i1 %57 to i64
  %59 = call i64 @llvm.expect.i64(i64 %58, i64 0)
  %60 = icmp ne i64 %59, 0
  br i1 %60, label %61, label %75

61:                                               ; preds = %42
  %62 = load i16, ptr %14, align 2, !tbaa !20
  %63 = zext i16 %62 to i32
  %64 = and i32 %63, 255
  %65 = icmp eq i32 %64, 0
  %66 = zext i1 %65 to i64
  %67 = call i64 @llvm.expect.i64(i64 %66, i64 1)
  %68 = icmp ne i64 %67, 0
  br i1 %68, label %69, label %72

69:                                               ; preds = %61
  %70 = load i64, ptr %13, align 8, !tbaa !15
  %71 = add i64 %70, 1
  store i64 %71, ptr %13, align 8, !tbaa !15
  br label %72

72:                                               ; preds = %69, %61
  %73 = load ptr, ptr %11, align 8, !tbaa !16
  %74 = load i64, ptr %13, align 8, !tbaa !15
  call void @_ZNSt17basic_string_viewIcSt11char_traitsIcEEC2EPKcm(ptr noundef nonnull align 8 dereferenceable(16) %5, ptr noundef %73, i64 noundef %74) #13
  store i32 1, ptr %15, align 4
  br label %78

75:                                               ; preds = %42
  %76 = load i64, ptr %13, align 8, !tbaa !15
  %77 = add i64 %76, 2
  store i64 %77, ptr %13, align 8, !tbaa !15
  store i32 0, ptr %15, align 4
  br label %78

78:                                               ; preds = %75, %72
  call void @llvm.lifetime.end.p0(i64 2, ptr %14) #13
  %79 = load i32, ptr %15, align 4
  switch i32 %79, label %179 [
    i32 0, label %80
  ]

80:                                               ; preds = %78
  br label %34, !llvm.loop !22

81:                                               ; preds = %34
  %82 = load i64, ptr %13, align 8, !tbaa !15
  %83 = load i64, ptr %8, align 8, !tbaa !15
  %84 = icmp ne i64 %82, %83
  %85 = zext i1 %84 to i64
  %86 = call i64 @llvm.expect.i64(i64 %85, i64 1)
  %87 = icmp ne i64 %86, 0
  br i1 %87, label %88, label %107

88:                                               ; preds = %81
  %89 = load ptr, ptr %11, align 8, !tbaa !16
  %90 = load i64, ptr %13, align 8, !tbaa !15
  %91 = getelementptr inbounds nuw i8, ptr %89, i64 %90
  %92 = load i8, ptr %91, align 1, !tbaa !19
  %93 = sext i8 %92 to i32
  %94 = load ptr, ptr %12, align 8, !tbaa !16
  %95 = load i64, ptr %13, align 8, !tbaa !15
  %96 = getelementptr inbounds nuw i8, ptr %94, i64 %95
  %97 = load i8, ptr %96, align 1, !tbaa !19
  %98 = sext i8 %97 to i32
  %99 = icmp eq i32 %93, %98
  %100 = zext i1 %99 to i64
  %101 = call i64 @llvm.expect.i64(i64 %100, i64 1)
  %102 = icmp ne i64 %101, 0
  br i1 %102, label %103, label %106

103:                                              ; preds = %88
  %104 = load i64, ptr %13, align 8, !tbaa !15
  %105 = add i64 %104, 1
  store i64 %105, ptr %13, align 8, !tbaa !15
  br label %106

106:                                              ; preds = %103, %88
  br label %107

107:                                              ; preds = %106, %81
  %108 = load ptr, ptr %11, align 8, !tbaa !16
  %109 = load i64, ptr %13, align 8, !tbaa !15
  call void @_ZNSt17basic_string_viewIcSt11char_traitsIcEEC2EPKcm(ptr noundef nonnull align 8 dereferenceable(16) %5, ptr noundef %108, i64 noundef %109) #13
  store i32 1, ptr %15, align 4
  br label %179

110:                                              ; preds = %4
  br label %111

111:                                              ; preds = %141, %110
  call void @llvm.lifetime.start.p0(i64 8, ptr %16) #13
  %112 = load ptr, ptr %11, align 8, !tbaa !16
  %113 = load i64, ptr %13, align 8, !tbaa !15
  %114 = getelementptr inbounds nuw i8, ptr %112, i64 %113
  %115 = call noundef i64 @_ZN4absl13little_endian6Load64EPKv(ptr noundef %114)
  %116 = load ptr, ptr %12, align 8, !tbaa !16
  %117 = load i64, ptr %13, align 8, !tbaa !15
  %118 = getelementptr inbounds nuw i8, ptr %116, i64 %117
  %119 = call noundef i64 @_ZN4absl13little_endian6Load64EPKv(ptr noundef %118)
  %120 = xor i64 %115, %119
  store i64 %120, ptr %16, align 8, !tbaa !15
  %121 = load i64, ptr %16, align 8, !tbaa !15
  %122 = icmp ne i64 %121, 0
  %123 = zext i1 %122 to i64
  %124 = call i64 @llvm.expect.i64(i64 %123, i64 0)
  %125 = icmp ne i64 %124, 0
  br i1 %125, label %126, label %135

126:                                              ; preds = %111
  %127 = load i64, ptr %16, align 8, !tbaa !15
  %128 = call noundef i32 @_ZN4absl11countr_zeroImEENSt9enable_ifIXsr3std11is_unsignedIT_EE5valueEiE4typeES2_(i64 noundef %127) #13
  %129 = ashr i32 %128, 3
  %130 = sext i32 %129 to i64
  %131 = load i64, ptr %13, align 8, !tbaa !15
  %132 = add i64 %131, %130
  store i64 %132, ptr %13, align 8, !tbaa !15
  %133 = load ptr, ptr %11, align 8, !tbaa !16
  %134 = load i64, ptr %13, align 8, !tbaa !15
  call void @_ZNSt17basic_string_viewIcSt11char_traitsIcEEC2EPKcm(ptr noundef nonnull align 8 dereferenceable(16) %5, ptr noundef %133, i64 noundef %134) #13
  store i32 1, ptr %15, align 4
  br label %138

135:                                              ; preds = %111
  %136 = load i64, ptr %13, align 8, !tbaa !15
  %137 = add i64 %136, 8
  store i64 %137, ptr %13, align 8, !tbaa !15
  store i32 0, ptr %15, align 4
  br label %138

138:                                              ; preds = %135, %126
  call void @llvm.lifetime.end.p0(i64 8, ptr %16) #13
  %139 = load i32, ptr %15, align 4
  switch i32 %139, label %179 [
    i32 0, label %140
  ]

140:                                              ; preds = %138
  br label %141

141:                                              ; preds = %140
  %142 = load i64, ptr %13, align 8, !tbaa !15
  %143 = add i64 %142, 8
  %144 = load i64, ptr %8, align 8, !tbaa !15
  %145 = icmp ult i64 %143, %144
  %146 = zext i1 %145 to i64
  %147 = call i64 @llvm.expect.i64(i64 %146, i64 1)
  %148 = icmp ne i64 %147, 0
  br i1 %148, label %111, label %149, !llvm.loop !23

149:                                              ; preds = %141
  %150 = load i64, ptr %8, align 8, !tbaa !15
  %151 = sub i64 %150, 8
  store i64 %151, ptr %13, align 8, !tbaa !15
  call void @llvm.lifetime.start.p0(i64 8, ptr %17) #13
  %152 = load ptr, ptr %11, align 8, !tbaa !16
  %153 = load i64, ptr %13, align 8, !tbaa !15
  %154 = getelementptr inbounds nuw i8, ptr %152, i64 %153
  %155 = call noundef i64 @_ZN4absl13little_endian6Load64EPKv(ptr noundef %154)
  %156 = load ptr, ptr %12, align 8, !tbaa !16
  %157 = load i64, ptr %13, align 8, !tbaa !15
  %158 = getelementptr inbounds nuw i8, ptr %156, i64 %157
  %159 = call noundef i64 @_ZN4absl13little_endian6Load64EPKv(ptr noundef %158)
  %160 = xor i64 %155, %159
  store i64 %160, ptr %17, align 8, !tbaa !15
  %161 = load i64, ptr %17, align 8, !tbaa !15
  %162 = icmp ne i64 %161, 0
  %163 = zext i1 %162 to i64
  %164 = call i64 @llvm.expect.i64(i64 %163, i64 1)
  %165 = icmp ne i64 %164, 0
  br i1 %165, label %166, label %175

166:                                              ; preds = %149
  %167 = load i64, ptr %17, align 8, !tbaa !15
  %168 = call noundef i32 @_ZN4absl11countr_zeroImEENSt9enable_ifIXsr3std11is_unsignedIT_EE5valueEiE4typeES2_(i64 noundef %167) #13
  %169 = ashr i32 %168, 3
  %170 = sext i32 %169 to i64
  %171 = load i64, ptr %13, align 8, !tbaa !15
  %172 = add i64 %171, %170
  store i64 %172, ptr %13, align 8, !tbaa !15
  %173 = load ptr, ptr %11, align 8, !tbaa !16
  %174 = load i64, ptr %13, align 8, !tbaa !15
  call void @_ZNSt17basic_string_viewIcSt11char_traitsIcEEC2EPKcm(ptr noundef nonnull align 8 dereferenceable(16) %5, ptr noundef %173, i64 noundef %174) #13
  store i32 1, ptr %15, align 4
  br label %178

175:                                              ; preds = %149
  %176 = load ptr, ptr %11, align 8, !tbaa !16
  %177 = load i64, ptr %8, align 8, !tbaa !15
  call void @_ZNSt17basic_string_viewIcSt11char_traitsIcEEC2EPKcm(ptr noundef nonnull align 8 dereferenceable(16) %5, ptr noundef %176, i64 noundef %177) #13
  store i32 1, ptr %15, align 4
  br label %178

178:                                              ; preds = %175, %166
  call void @llvm.lifetime.end.p0(i64 8, ptr %17) #13
  br label %179

179:                                              ; preds = %178, %138, %107, %78
  call void @llvm.lifetime.end.p0(i64 8, ptr %13) #13
  call void @llvm.lifetime.end.p0(i64 8, ptr %12) #13
  call void @llvm.lifetime.end.p0(i64 8, ptr %11) #13
  call void @llvm.lifetime.end.p0(i64 8, ptr %8) #13
  %180 = load { i64, ptr }, ptr %5, align 8
  ret { i64, ptr } %180
}