; Function Attrs: mustprogress nofree norecurse nosync nounwind willreturn memory(argmem: read) uwtable
define dso_local { i64, ptr } @_ZN4absl23FindLongestCommonPrefixESt17basic_string_viewIcSt11char_traitsIcEES3_(i64 %0, ptr %1, i64 %2, ptr readonly captures(none) %3) local_unnamed_addr #6 personality ptr @__gxx_personality_v0 {
  %.sroa.speculated = tail call i64 @llvm.umin.i64(i64 %2, i64 %0)
  %5 = icmp ult i64 %.sroa.speculated, 8
  br i1 %5, label %.preheader, label %.preheader82, !prof !10

.preheader:                                       ; preds = %4, %7
  %.0 = phi i64 [ %6, %7 ], [ 0, %4 ]
  %6 = add i64 %.0, 2
  %.not57 = icmp ugt i64 %6, %.sroa.speculated
  br i1 %.not57, label %14, label %7, !prof !10

7:                                                ; preds = %.preheader
  %8 = getelementptr inbounds nuw i8, ptr %1, i64 %.0
  %.0.copyload.i.i = load i16, ptr %8, align 1
  %9 = getelementptr inbounds nuw i8, ptr %3, i64 %.0
  %.0.copyload.i.i61 = load i16, ptr %9, align 1
  %.not59 = icmp eq i16 %.0.copyload.i.i, %.0.copyload.i.i61
  br i1 %.not59, label %.preheader, label %.thread, !prof !11

.thread:                                          ; preds = %7
  %10 = xor i16 %.0.copyload.i.i61, %.0.copyload.i.i
  %11 = and i16 %10, 255
  %12 = icmp eq i16 %11, 0
  %13 = zext i1 %12 to i64
  %spec.select = or disjoint i64 %.0, %13
  br label %42

14:                                               ; preds = %.preheader
  %.not58 = icmp eq i64 %.0, %.sroa.speculated
  br i1 %.not58, label %42, label %15, !prof !10

15:                                               ; preds = %14
  %16 = getelementptr inbounds nuw i8, ptr %1, i64 %.0
  %17 = load i8, ptr %16, align 1, !tbaa !6
  %18 = getelementptr inbounds nuw i8, ptr %3, i64 %.0
  %19 = load i8, ptr %18, align 1, !tbaa !6
  %20 = icmp eq i8 %17, %19
  %21 = zext i1 %20 to i64
  %spec.select60 = or disjoint i64 %.0, %21
  br label %42

.preheader82:                                     ; preds = %4, %29
  %.4 = phi i64 [ %30, %29 ], [ 0, %4 ]
  %22 = getelementptr inbounds nuw i8, ptr %1, i64 %.4
  %.0.copyload.i.i62 = load i64, ptr %22, align 1
  %23 = getelementptr inbounds nuw i8, ptr %3, i64 %.4
  %.0.copyload.i.i63 = load i64, ptr %23, align 1
  %.not = icmp eq i64 %.0.copyload.i.i62, %.0.copyload.i.i63
  br i1 %.not, label %29, label %24, !prof !11

24:                                               ; preds = %.preheader82
  %25 = xor i64 %.0.copyload.i.i63, %.0.copyload.i.i62
  %26 = tail call range(i64 0, 65) i64 @llvm.cttz.i64(i64 %25, i1 false)
  %27 = lshr i64 %26, 3
  %28 = add i64 %27, %.4
  br label %42

29:                                               ; preds = %.preheader82
  %30 = add i64 %.4, 8
  %31 = add i64 %.4, 16
  %32 = icmp ult i64 %31, %.sroa.speculated
  br i1 %32, label %.preheader82, label %33, !prof !11, !llvm.loop !12

33:                                               ; preds = %29
  %34 = add i64 %.sroa.speculated, -8
  %35 = getelementptr inbounds nuw i8, ptr %1, i64 %34
  %.0.copyload.i.i64 = load i64, ptr %35, align 1
  %36 = getelementptr inbounds nuw i8, ptr %3, i64 %34
  %.0.copyload.i.i65 = load i64, ptr %36, align 1
  %.not56 = icmp eq i64 %.0.copyload.i.i64, %.0.copyload.i.i65
  br i1 %.not56, label %42, label %37, !prof !10

37:                                               ; preds = %33
  %38 = xor i64 %.0.copyload.i.i65, %.0.copyload.i.i64
  %39 = tail call range(i64 0, 65) i64 @llvm.cttz.i64(i64 %38, i1 false)
  %40 = lshr i64 %39, 3
  %41 = add i64 %40, %34
  br label %42

42:                                               ; preds = %33, %24, %14, %15, %.thread, %37
  %.sroa.071.2 = phi i64 [ %41, %37 ], [ %28, %24 ], [ %spec.select, %.thread ], [ %.sroa.speculated, %14 ], [ %spec.select60, %15 ], [ %.sroa.speculated, %33 ]
  %.fca.0.insert = insertvalue { i64, ptr } poison, i64 %.sroa.071.2, 0
  %.fca.1.insert = insertvalue { i64, ptr } %.fca.0.insert, ptr %1, 1
  ret { i64, ptr } %.fca.1.insert
}